; Function Attrs: mustprogress uwtable
define dso_local void @_ZN23btDiscreteDynamicsWorld12applyGravityEv(ptr nocapture noundef nonnull readonly align 8 dereferenceable(508) %this) unnamed_addr #0 align 2 {
entry:
  %m_size.i = getelementptr inbounds i8, ptr %this, i64 372
  %0 = load i32, ptr %m_size.i, align 4
  %cmp4 = icmp sgt i32 %0, 0
  br i1 %cmp4, label %for.body.lr.ph, label %for.end

for.body.lr.ph:                                   ; preds = %entry
  %m_data.i = getelementptr inbounds i8, ptr %this, i64 384
  br label %for.body

for.body:                                         ; preds = %for.body.lr.ph, %for.inc
  %1 = phi i32 [ %0, %for.body.lr.ph ], [ %5, %for.inc ]
  %indvars.iv = phi i64 [ 0, %for.body.lr.ph ], [ %indvars.iv.next, %for.inc ]
  %2 = load ptr, ptr %m_data.i, align 8
  %arrayidx.i = getelementptr inbounds ptr, ptr %2, i64 %indvars.iv
  %3 = load ptr, ptr %arrayidx.i, align 8
  %m_activationState1.i.i = getelementptr inbounds i8, ptr %3, i64 240
  %4 = load i32, ptr %m_activationState1.i.i, align 8
  switch i32 %4, label %if.then [
    i32 6, label %for.inc
    i32 2, label %for.inc
    i32 5, label %for.inc
  ]

if.then:                                          ; preds = %for.body
  tail call void @_ZN11btRigidBody12applyGravityEv(ptr noundef nonnull align 8 dereferenceable(744) %3)
  %.pre = load i32, ptr %m_size.i, align 4
  br label %for.inc

for.inc:                                          ; preds = %for.body, %for.body, %for.body, %if.then
  %5 = phi i32 [ %1, %for.body ], [ %1, %for.body ], [ %1, %for.body ], [ %.pre, %if.then ]
  %indvars.iv.next = add nuw nsw i64 %indvars.iv, 1
  %6 = sext i32 %5 to i64
  %cmp = icmp slt i64 %indvars.iv.next, %6
  br i1 %cmp, label %for.body, label %for.end, !llvm.loop !10

for.end:                                          ; preds = %for.inc, %entry
  ret void
}